target datalayout = "e-m:e-p270:32:32-p271:32:32-p272:64:64-i64:64-i128:128-f80:128-n8:16:32:64-S128"
target triple = "x86_64-pc-linux-gnu"

%struct.RTJpegContext = type { i32, i32, %struct.IDCTDSPContext, [64 x i8], [64 x i32], [64 x i32], [64 x i16] }
%struct.IDCTDSPContext = type { ptr, ptr, ptr, ptr, ptr, ptr, [64 x i8], i32, i32 }

; Function Attrs: nounwind uwtable
define void @ff_rtjpeg_decode_init(ptr noundef %0, i32 noundef %1, i32 noundef %2, ptr noundef %3, ptr noundef %4) #0 {
  %6 = alloca ptr, align 8
  %7 = alloca i32, align 4
  %8 = alloca i32, align 4
  %9 = alloca ptr, align 8
  %10 = alloca ptr, align 8
  %11 = alloca i32, align 4
  %12 = alloca i32, align 4
  store ptr %0, ptr %6, align 8, !tbaa !4
  store i32 %1, ptr %7, align 4, !tbaa !13
  store i32 %2, ptr %8, align 4, !tbaa !13
  store ptr %3, ptr %9, align 8, !tbaa !27
  store ptr %4, ptr %10, align 8, !tbaa !27
  call void @llvm.lifetime.start.p0(i64 4, ptr %11) #6
  store i32 0, ptr %11, align 4, !tbaa !13
  br label %13

13:                                               ; preds = %45, %5
  %14 = load i32, ptr %11, align 4, !tbaa !13
  %15 = icmp slt i32 %14, 64
  br i1 %15, label %16, label %48

16:                                               ; preds = %13
  call void @llvm.lifetime.start.p0(i64 4, ptr %12) #6
  %17 = load ptr, ptr %6, align 8, !tbaa !4
  %18 = getelementptr inbounds nuw %struct.RTJpegContext, ptr %17, i32 0, i32 2
  %19 = getelementptr inbounds nuw %struct.IDCTDSPContext, ptr %18, i32 0, i32 6
  %20 = load i32, ptr %11, align 4, !tbaa !13
  %21 = sext i32 %20 to i64
  %22 = getelementptr inbounds [64 x i8], ptr %19, i64 0, i64 %21
  %23 = load i8, ptr %22, align 1, !tbaa !29
  %24 = zext i8 %23 to i32
  store i32 %24, ptr %12, align 4, !tbaa !13
  %25 = load ptr, ptr %9, align 8, !tbaa !27
  %26 = load i32, ptr %11, align 4, !tbaa !13
  %27 = sext i32 %26 to i64
  %28 = getelementptr inbounds i32, ptr %25, i64 %27
  %29 = load i32, ptr %28, align 4, !tbaa !13
  %30 = load ptr, ptr %6, align 8, !tbaa !4
  %31 = getelementptr inbounds nuw %struct.RTJpegContext, ptr %30, i32 0, i32 4
  %32 = load i32, ptr %12, align 4, !tbaa !13
  %33 = sext i32 %32 to i64
  %34 = getelementptr inbounds [64 x i32], ptr %31, i64 0, i64 %33
  store i32 %29, ptr %34, align 4, !tbaa !13
  %35 = load ptr, ptr %10, align 8, !tbaa !27
  %36 = load i32, ptr %11, align 4, !tbaa !13
  %37 = sext i32 %36 to i64
  %38 = getelementptr inbounds i32, ptr %35, i64 %37
  %39 = load i32, ptr %38, align 4, !tbaa !13
  %40 = load ptr, ptr %6, align 8, !tbaa !4
  %41 = getelementptr inbounds nuw %struct.RTJpegContext, ptr %40, i32 0, i32 5
  %42 = load i32, ptr %12, align 4, !tbaa !13
  %43 = sext i32 %42 to i64
  %44 = getelementptr inbounds [64 x i32], ptr %41, i64 0, i64 %43
  store i32 %39, ptr %44, align 4, !tbaa !13
  call void @llvm.lifetime.end.p0(i64 4, ptr %12) #6
  br label %45

45:                                               ; preds = %16
  %46 = load i32, ptr %11, align 4, !tbaa !13
  %47 = add nsw i32 %46, 1
  store i32 %47, ptr %11, align 4, !tbaa !13
  br label %13, !llvm.loop !37

48:                                               ; preds = %13
  %49 = load i32, ptr %7, align 4, !tbaa !13
  %50 = load ptr, ptr %6, align 8, !tbaa !4
  %51 = getelementptr inbounds nuw %struct.RTJpegContext, ptr %50, i32 0, i32 0
  store i32 %49, ptr %51, align 16, !tbaa !15
  %52 = load i32, ptr %8, align 4, !tbaa !13
  %53 = load ptr, ptr %6, align 8, !tbaa !4
  %54 = getelementptr inbounds nuw %struct.RTJpegContext, ptr %53, i32 0, i32 1
  store i32 %52, ptr %54, align 4, !tbaa !18
  call void @llvm.lifetime.end.p0(i64 4, ptr %11) #6
  ret void
}