; Function Attrs: nofree norecurse nosync nounwind memory(argmem: readwrite) uwtable
define void @ff_rtjpeg_decode_init(ptr noundef captures(none) %0, i32 noundef %1, i32 noundef %2, ptr noundef readonly captures(none) %3, ptr noundef readonly captures(none) %4) local_unnamed_addr #3 {
  %6 = getelementptr inbounds nuw i8, ptr %0, i64 56
  %7 = getelementptr inbounds nuw i8, ptr %0, i64 192
  %8 = getelementptr inbounds nuw i8, ptr %0, i64 448
  br label %9

9:                                                ; preds = %5, %9
  %indvars.iv = phi i64 [ 0, %5 ], [ %indvars.iv.next, %9 ]
  %10 = getelementptr inbounds nuw [64 x i8], ptr %6, i64 0, i64 %indvars.iv
  %11 = load i8, ptr %10, align 1, !tbaa !25
  %12 = getelementptr inbounds nuw i32, ptr %3, i64 %indvars.iv
  %13 = load i32, ptr %12, align 4, !tbaa !14
  %14 = zext i8 %11 to i64
  %15 = getelementptr inbounds nuw [64 x i32], ptr %7, i64 0, i64 %14
  store i32 %13, ptr %15, align 4, !tbaa !14
  %16 = getelementptr inbounds nuw i32, ptr %4, i64 %indvars.iv
  %17 = load i32, ptr %16, align 4, !tbaa !14
  %18 = getelementptr inbounds nuw [64 x i32], ptr %8, i64 0, i64 %14
  store i32 %17, ptr %18, align 4, !tbaa !14
  %indvars.iv.next = add nuw nsw i64 %indvars.iv, 1
  %exitcond.not = icmp eq i64 %indvars.iv.next, 64
  br i1 %exitcond.not, label %19, label %9, !llvm.loop !31

19:                                               ; preds = %9
  store i32 %1, ptr %0, align 16, !tbaa !4
  %20 = getelementptr inbounds nuw i8, ptr %0, i64 4
  store i32 %2, ptr %20, align 4, !tbaa !11
  ret void
}